target datalayout = "e-m:e-p270:32:32-p271:32:32-p272:64:64-i64:64-i128:128-f80:128-n8:16:32:64-S128"
target triple = "x86_64-unknown-linux-gnu"

%"class.ue2::ComponentByte" = type <{ %"class.ue2::Component", i32, [4 x i8] }>
%"class.ue2::Component" = type { ptr, i32, i32 }

@_ZN3ue218GlushkovBuildState17POS_UNINITIALIZEDE = external constant i32, align 4

; Function Attrs: mustprogress uwtable
define hidden void @_ZN3ue213ComponentByteC2Ev(ptr noundef nonnull align 8 dereferenceable(20) %this) unnamed_addr #0 align 2 {
entry:
  %this.addr = alloca ptr, align 8
  store ptr %this, ptr %this.addr, align 8
  %this1 = load ptr, ptr %this.addr, align 8
  call void @_ZN3ue29ComponentC2Ev(ptr noundef nonnull align 8 dereferenceable(16) %this1)
  store ptr getelementptr inbounds ({ [17 x ptr] }, ptr @_ZTVN3ue213ComponentByteE, i32 0, i32 0, i32 2), ptr %this1, align 8
  %position = getelementptr inbounds %"class.ue2::ComponentByte", ptr %this1, i32 0, i32 1
  %0 = load i32, ptr @_ZN3ue218GlushkovBuildState17POS_UNINITIALIZEDE, align 4
  store i32 %0, ptr %position, align 8
  ret void
}