; Function Attrs: mustprogress uwtable
define hidden void @_ZN3ue213ComponentByteC2Ev(ptr noundef nonnull align 8 dereferenceable(20) %this) unnamed_addr #0 align 2 {
entry:
  tail call void @_ZN3ue29ComponentC2Ev(ptr noundef nonnull align 8 dereferenceable(16) %this)
  store ptr getelementptr inbounds ({ [17 x ptr] }, ptr @_ZTVN3ue213ComponentByteE, i64 0, i32 0, i64 2), ptr %this, align 8
  %position = getelementptr inbounds i8, ptr %this, i64 16
  %0 = load i32, ptr @_ZN3ue218GlushkovBuildState17POS_UNINITIALIZEDE, align 4
  store i32 %0, ptr %position, align 8
  ret void
}